ARM GAS  C:\Users\nikod\AppData\Local\Temp\ccZW2Ut4.s 			page 1


   1              		.syntax unified
   2              		.cpu cortex-m3
   3              		.fpu softvfp
   4              		.eabi_attribute 20, 1
   5              		.eabi_attribute 21, 1
   6              		.eabi_attribute 23, 3
   7              		.eabi_attribute 24, 1
   8              		.eabi_attribute 25, 1
   9              		.eabi_attribute 26, 1
  10              		.eabi_attribute 30, 1
  11              		.eabi_attribute 34, 1
  12              		.eabi_attribute 18, 4
  13              		.thumb
  14              		.syntax unified
  15              		.file	"main.c"
  16              		.text
  17              	.Ltext0:
  18              		.cfi_sections	.debug_frame
  19              		.section	.text.ISR_Timer2,"ax",%progbits
  20              		.align	2
  21              		.global	ISR_Timer2
  22              		.thumb
  23              		.thumb_func
  24              		.type	ISR_Timer2, %function
  25              	ISR_Timer2:
  26              	.LFB66:
  27              		.file 1 "main.c"
   1:main.c        **** /* ========================================
   2:main.c        ****  *
   3:main.c        ****  * Copyright YOUR COMPANY, THE YEAR
   4:main.c        ****  * All Rights Reserved
   5:main.c        ****  * UNPUBLISHED, LICENSED SOFTWARE.
   6:main.c        ****  *
   7:main.c        ****  * CONFIDENTIAL AND PROPRIETARY INFORMATION
   8:main.c        ****  * WHICH IS THE PROPERTY OF your company.
   9:main.c        ****  *
  10:main.c        ****  * ========================================
  11:main.c        **** */
  12:main.c        **** #include "project.h"
  13:main.c        **** #include <stdio.h>
  14:main.c        **** #include <stdbool.h>
  15:main.c        **** 
  16:main.c        **** volatile uint16 contd=0;
  17:main.c        **** volatile char cont=0;
  18:main.c        **** uint16 d=0;
  19:main.c        **** float seleccion=5.5;//medida en cm
  20:main.c        **** volatile bool dec=1;
  21:main.c        **** volatile float dising=100;//Distancia Ingresada
  22:main.c        **** volatile uint16 disingaux=0;//distancia tempotal
  23:main.c        **** volatile uint8 de=0;
  24:main.c        **** 
  25:main.c        **** 
  26:main.c        **** void visual(uint8 numero){
  27:main.c        ****     if(numero==10){  
  28:main.c        ****         //Enter
  29:main.c        ****     if(de==0){
  30:main.c        ****         dising=disingaux;
ARM GAS  C:\Users\nikod\AppData\Local\Temp\ccZW2Ut4.s 			page 2


  31:main.c        ****         disingaux=0;
  32:main.c        ****         de=1;
  33:main.c        ****         LCD_Position(1,10);
  34:main.c        ****         LCD_PrintString("    ");
  35:main.c        ****         LCD_Position(1,10);
  36:main.c        ****         LCD_PrintNumber((int)dising);
  37:main.c        ****         }
  38:main.c        ****     }else{
  39:main.c        ****         de=0;
  40:main.c        ****             if(disingaux==0){
  41:main.c        ****                 disingaux=numero;
  42:main.c        ****             }else{
  43:main.c        ****                 disingaux=disingaux*10+numero;
  44:main.c        ****                     if((disingaux>100)&(disingaux>1000)){
  45:main.c        ****                         dising=1000;
  46:main.c        ****                         disingaux=0;
  47:main.c        ****                         de=1;
  48:main.c        ****                     }
  49:main.c        ****                 }
  50:main.c        ****         }
  51:main.c        **** }
  52:main.c        **** 
  53:main.c        **** 
  54:main.c        **** CY_ISR(ISR_Timer){
  55:main.c        ****     if(cont==3){
  56:main.c        ****         cont=0;
  57:main.c        ****     }else{
  58:main.c        ****         cont=cont+1;
  59:main.c        ****     }
  60:main.c        ****     switch(cont){
  61:main.c        ****          case 0:
  62:main.c        ****             P0_Write(0b00001110);
  63:main.c        ****          break;
  64:main.c        ****          case 1:
  65:main.c        ****             P0_Write(0b00001101);
  66:main.c        ****          break;
  67:main.c        ****          case 2:
  68:main.c        ****             P0_Write(0b00001101);
  69:main.c        ****         break;
  70:main.c        ****         default:
  71:main.c        ****             P0_Write(0b00000111);
  72:main.c        ****         break;            
  73:main.c        ****     }   
  74:main.c        **** }
  75:main.c        **** CY_ISR(ISR_Timer2){
  28              		.loc 1 75 0
  29              		.cfi_startproc
  30              		@ args = 0, pretend = 0, frame = 0
  31              		@ frame_needed = 0, uses_anonymous_args = 0
  32              		@ link register save eliminated.
  76:main.c        ****     contd++;//cuenta cada 100us -- la señal va de 100us a 25 ms es decir que el contador debe esta
  33              		.loc 1 76 0
  34 0000 034A     		ldr	r2, .L2
  35 0002 1388     		ldrh	r3, [r2]
  36 0004 9BB2     		uxth	r3, r3
  37 0006 0133     		adds	r3, r3, #1
  38 0008 9BB2     		uxth	r3, r3
ARM GAS  C:\Users\nikod\AppData\Local\Temp\ccZW2Ut4.s 			page 3


  39 000a 1380     		strh	r3, [r2]	@ movhi
  40 000c 7047     		bx	lr
  41              	.L3:
  42 000e 00BF     		.align	2
  43              	.L2:
  44 0010 00000000 		.word	.LANCHOR0
  45              		.cfi_endproc
  46              	.LFE66:
  47              		.size	ISR_Timer2, .-ISR_Timer2
  48              		.section	.text.ISR_Timer,"ax",%progbits
  49              		.align	2
  50              		.global	ISR_Timer
  51              		.thumb
  52              		.thumb_func
  53              		.type	ISR_Timer, %function
  54              	ISR_Timer:
  55              	.LFB65:
  54:main.c        ****     if(cont==3){
  56              		.loc 1 54 0
  57              		.cfi_startproc
  58              		@ args = 0, pretend = 0, frame = 0
  59              		@ frame_needed = 0, uses_anonymous_args = 0
  60 0000 08B5     		push	{r3, lr}
  61              		.cfi_def_cfa_offset 8
  62              		.cfi_offset 3, -8
  63              		.cfi_offset 14, -4
  55:main.c        ****         cont=0;
  64              		.loc 1 55 0
  65 0002 134B     		ldr	r3, .L14
  66 0004 9B78     		ldrb	r3, [r3, #2]	@ zero_extendqisi2
  67 0006 DBB2     		uxtb	r3, r3
  68 0008 032B     		cmp	r3, #3
  69 000a 03D1     		bne	.L5
  56:main.c        ****     }else{
  70              		.loc 1 56 0
  71 000c 0022     		movs	r2, #0
  72 000e 104B     		ldr	r3, .L14
  73 0010 9A70     		strb	r2, [r3, #2]
  74 0012 04E0     		b	.L6
  75              	.L5:
  58:main.c        ****     }
  76              		.loc 1 58 0
  77 0014 0E4A     		ldr	r2, .L14
  78 0016 9378     		ldrb	r3, [r2, #2]	@ zero_extendqisi2
  79 0018 0133     		adds	r3, r3, #1
  80 001a DBB2     		uxtb	r3, r3
  81 001c 9370     		strb	r3, [r2, #2]
  82              	.L6:
  60:main.c        ****          case 0:
  83              		.loc 1 60 0
  84 001e 0C4B     		ldr	r3, .L14
  85 0020 9B78     		ldrb	r3, [r3, #2]	@ zero_extendqisi2
  86 0022 DBB2     		uxtb	r3, r3
  87 0024 012B     		cmp	r3, #1
  88 0026 07D0     		beq	.L8
  89 0028 13B1     		cbz	r3, .L9
  90 002a 022B     		cmp	r3, #2
ARM GAS  C:\Users\nikod\AppData\Local\Temp\ccZW2Ut4.s 			page 4


  91 002c 08D0     		beq	.L10
  92 002e 0BE0     		b	.L12
  93              	.L9:
  62:main.c        ****          break;
  94              		.loc 1 62 0
  95 0030 0E20     		movs	r0, #14
  96 0032 FFF7FEFF 		bl	P0_Write
  97              	.LVL0:
  63:main.c        ****          case 1:
  98              		.loc 1 63 0
  99 0036 08BD     		pop	{r3, pc}
 100              	.L8:
  65:main.c        ****          break;
 101              		.loc 1 65 0
 102 0038 0D20     		movs	r0, #13
 103 003a FFF7FEFF 		bl	P0_Write
 104              	.LVL1:
  66:main.c        ****          case 2:
 105              		.loc 1 66 0
 106 003e 08BD     		pop	{r3, pc}
 107              	.L10:
  68:main.c        ****         break;
 108              		.loc 1 68 0
 109 0040 0D20     		movs	r0, #13
 110 0042 FFF7FEFF 		bl	P0_Write
 111              	.LVL2:
  69:main.c        ****         default:
 112              		.loc 1 69 0
 113 0046 08BD     		pop	{r3, pc}
 114              	.L12:
  71:main.c        ****         break;            
 115              		.loc 1 71 0
 116 0048 0720     		movs	r0, #7
 117 004a FFF7FEFF 		bl	P0_Write
 118              	.LVL3:
 119 004e 08BD     		pop	{r3, pc}
 120              	.L15:
 121              		.align	2
 122              	.L14:
 123 0050 00000000 		.word	.LANCHOR0
 124              		.cfi_endproc
 125              	.LFE65:
 126              		.size	ISR_Timer, .-ISR_Timer
 127              		.global	__aeabi_ui2f
 128              		.global	__aeabi_f2iz
 129              		.section	.text.visual,"ax",%progbits
 130              		.align	2
 131              		.global	visual
 132              		.thumb
 133              		.thumb_func
 134              		.type	visual, %function
 135              	visual:
 136              	.LFB64:
  26:main.c        ****     if(numero==10){  
 137              		.loc 1 26 0
 138              		.cfi_startproc
 139              		@ args = 0, pretend = 0, frame = 0
ARM GAS  C:\Users\nikod\AppData\Local\Temp\ccZW2Ut4.s 			page 5


 140              		@ frame_needed = 0, uses_anonymous_args = 0
 141              	.LVL4:
  27:main.c        ****         //Enter
 142              		.loc 1 27 0
 143 0000 0A28     		cmp	r0, #10
 144 0002 22D1     		bne	.L17
  29:main.c        ****         dising=disingaux;
 145              		.loc 1 29 0
 146 0004 244B     		ldr	r3, .L22
 147 0006 DB78     		ldrb	r3, [r3, #3]	@ zero_extendqisi2
 148 0008 13F0FF0F 		tst	r3, #255
 149 000c 42D1     		bne	.L21
  26:main.c        ****     if(numero==10){  
 150              		.loc 1 26 0
 151 000e 70B5     		push	{r4, r5, r6, lr}
 152              		.cfi_def_cfa_offset 16
 153              		.cfi_offset 4, -16
 154              		.cfi_offset 5, -12
 155              		.cfi_offset 6, -8
 156              		.cfi_offset 14, -4
  30:main.c        ****         disingaux=0;
 157              		.loc 1 30 0
 158 0010 214D     		ldr	r5, .L22
 159 0012 A888     		ldrh	r0, [r5, #4]
 160              	.LVL5:
 161 0014 80B2     		uxth	r0, r0
 162 0016 FFF7FEFF 		bl	__aeabi_ui2f
 163              	.LVL6:
 164 001a 204E     		ldr	r6, .L22+4
 165 001c 3060     		str	r0, [r6]	@ float
  31:main.c        ****         de=1;
 166              		.loc 1 31 0
 167 001e 0023     		movs	r3, #0
 168 0020 AB80     		strh	r3, [r5, #4]	@ movhi
  32:main.c        ****         LCD_Position(1,10);
 169              		.loc 1 32 0
 170 0022 0124     		movs	r4, #1
 171 0024 EC70     		strb	r4, [r5, #3]
  33:main.c        ****         LCD_PrintString("    ");
 172              		.loc 1 33 0
 173 0026 0A21     		movs	r1, #10
 174 0028 2046     		mov	r0, r4
 175 002a FFF7FEFF 		bl	LCD_Position
 176              	.LVL7:
  34:main.c        ****         LCD_Position(1,10);
 177              		.loc 1 34 0
 178 002e 1C48     		ldr	r0, .L22+8
 179 0030 FFF7FEFF 		bl	LCD_PrintString
 180              	.LVL8:
  35:main.c        ****         LCD_PrintNumber((int)dising);
 181              		.loc 1 35 0
 182 0034 0A21     		movs	r1, #10
 183 0036 2046     		mov	r0, r4
 184 0038 FFF7FEFF 		bl	LCD_Position
 185              	.LVL9:
  36:main.c        ****         }
 186              		.loc 1 36 0
ARM GAS  C:\Users\nikod\AppData\Local\Temp\ccZW2Ut4.s 			page 6


 187 003c 3068     		ldr	r0, [r6]	@ float
 188 003e FFF7FEFF 		bl	__aeabi_f2iz
 189              	.LVL10:
 190 0042 80B2     		uxth	r0, r0
 191 0044 FFF7FEFF 		bl	LCD_PrintU32Number
 192              	.LVL11:
 193 0048 70BD     		pop	{r4, r5, r6, pc}
 194              	.LVL12:
 195              	.L17:
 196              		.cfi_def_cfa_offset 0
 197              		.cfi_restore 4
 198              		.cfi_restore 5
 199              		.cfi_restore 6
 200              		.cfi_restore 14
  39:main.c        ****             if(disingaux==0){
 201              		.loc 1 39 0
 202 004a 134B     		ldr	r3, .L22
 203 004c 0022     		movs	r2, #0
 204 004e DA70     		strb	r2, [r3, #3]
  40:main.c        ****                 disingaux=numero;
 205              		.loc 1 40 0
 206 0050 9B88     		ldrh	r3, [r3, #4]
 207 0052 9BB2     		uxth	r3, r3
 208 0054 1BB9     		cbnz	r3, .L19
  41:main.c        ****             }else{
 209              		.loc 1 41 0
 210 0056 80B2     		uxth	r0, r0
 211              	.LVL13:
 212 0058 0F4B     		ldr	r3, .L22
 213 005a 9880     		strh	r0, [r3, #4]	@ movhi
 214 005c 7047     		bx	lr
 215              	.LVL14:
 216              	.L19:
  43:main.c        ****                     if((disingaux>100)&(disingaux>1000)){
 217              		.loc 1 43 0
 218 005e 0E4A     		ldr	r2, .L22
 219 0060 9388     		ldrh	r3, [r2, #4]
 220 0062 9BB2     		uxth	r3, r3
 221 0064 03EB8303 		add	r3, r3, r3, lsl #2
 222 0068 5900     		lsls	r1, r3, #1
 223 006a 0844     		add	r0, r0, r1
 224              	.LVL15:
 225 006c 80B2     		uxth	r0, r0
 226 006e 9080     		strh	r0, [r2, #4]	@ movhi
  44:main.c        ****                         dising=1000;
 227              		.loc 1 44 0
 228 0070 9188     		ldrh	r1, [r2, #4]
 229 0072 89B2     		uxth	r1, r1
 230 0074 9388     		ldrh	r3, [r2, #4]
 231 0076 9BB2     		uxth	r3, r3
 232 0078 6429     		cmp	r1, #100
 233 007a 88BF     		it	hi
 234 007c B3F57A7F 		cmphi	r3, #1000
 235 0080 08D9     		bls	.L21
  45:main.c        ****                         disingaux=0;
 236              		.loc 1 45 0
 237 0082 084A     		ldr	r2, .L22+12
ARM GAS  C:\Users\nikod\AppData\Local\Temp\ccZW2Ut4.s 			page 7


 238 0084 054B     		ldr	r3, .L22+4
 239 0086 1A60     		str	r2, [r3]	@ float
  46:main.c        ****                         de=1;
 240              		.loc 1 46 0
 241 0088 034B     		ldr	r3, .L22
 242 008a 0022     		movs	r2, #0
 243 008c 9A80     		strh	r2, [r3, #4]	@ movhi
  47:main.c        ****                     }
 244              		.loc 1 47 0
 245 008e 0122     		movs	r2, #1
 246 0090 DA70     		strb	r2, [r3, #3]
  51:main.c        **** 
 247              		.loc 1 51 0
 248 0092 7047     		bx	lr
 249              	.L21:
 250 0094 7047     		bx	lr
 251              	.L23:
 252 0096 00BF     		.align	2
 253              	.L22:
 254 0098 00000000 		.word	.LANCHOR0
 255 009c 00000000 		.word	.LANCHOR1
 256 00a0 00000000 		.word	.LC0
 257 00a4 00007A44 		.word	1148846080
 258              		.cfi_endproc
 259              	.LFE64:
 260              		.size	visual, .-visual
 261              		.section	.text.ISR_KEY,"ax",%progbits
 262              		.align	2
 263              		.global	ISR_KEY
 264              		.thumb
 265              		.thumb_func
 266              		.type	ISR_KEY, %function
 267              	ISR_KEY:
 268              	.LFB67:
  77:main.c        **** }
  78:main.c        **** 
  79:main.c        **** 
  80:main.c        **** 
  81:main.c        **** CY_ISR(ISR_KEY){
 269              		.loc 1 81 0
 270              		.cfi_startproc
 271              		@ args = 0, pretend = 0, frame = 0
 272              		@ frame_needed = 0, uses_anonymous_args = 0
 273 0000 08B5     		push	{r3, lr}
 274              		.cfi_def_cfa_offset 8
 275              		.cfi_offset 3, -8
 276              		.cfi_offset 14, -4
  82:main.c        ****    dec=0;//Detiene el timer para que no vuelva a entrar
 277              		.loc 1 82 0
 278 0002 0022     		movs	r2, #0
 279 0004 294B     		ldr	r3, .L39
 280 0006 1A71     		strb	r2, [r3, #4]
  83:main.c        **** switch(Key_Read()) {
 281              		.loc 1 83 0
 282 0008 FFF7FEFF 		bl	Key_Read
 283              	.LVL16:
 284 000c 0738     		subs	r0, r0, #7
ARM GAS  C:\Users\nikod\AppData\Local\Temp\ccZW2Ut4.s 			page 8


 285 000e 0728     		cmp	r0, #7
 286 0010 46D8     		bhi	.L25
 287 0012 DFE800F0 		tbb	[pc, r0]
 288              	.L27:
 289 0016 1B       		.byte	(.L26-.L27)/2
 290 0017 45       		.byte	(.L25-.L27)/2
 291 0018 45       		.byte	(.L25-.L27)/2
 292 0019 45       		.byte	(.L25-.L27)/2
 293 001a 0F       		.byte	(.L28-.L27)/2
 294 001b 45       		.byte	(.L25-.L27)/2
 295 001c 0C       		.byte	(.L29-.L27)/2
 296 001d 04       		.byte	(.L30-.L27)/2
 297              		.p2align 1
 298              	.L30:
  84:main.c        ****         case 0b00001110:
  85:main.c        ****             switch(P0_Read()) {
 299              		.loc 1 85 0
 300 001e FFF7FEFF 		bl	P0_Read
 301              	.LVL17:
 302 0022 0E28     		cmp	r0, #14
 303 0024 3CD1     		bne	.L25
  86:main.c        ****                     case 0xE:
  87:main.c        ****                     visual(4);
 304              		.loc 1 87 0
 305 0026 0420     		movs	r0, #4
 306 0028 FFF7FEFF 		bl	visual
 307              	.LVL18:
  88:main.c        ****                     break;
 308              		.loc 1 88 0
 309 002c 38E0     		b	.L25
 310              	.L29:
  89:main.c        ****                     case 0xD:
  90:main.c        **** 
  91:main.c        ****                     break;
  92:main.c        ****                      case 0xB:
  93:main.c        **** 
  94:main.c        ****                     break;
  95:main.c        ****                     case 0x7:
  96:main.c        ****                     break;
  97:main.c        ****                     default:
  98:main.c        ****                     break;
  99:main.c        ****                 }
 100:main.c        ****                     break;
 101:main.c        ****         case 0b00001101:
 102:main.c        ****             switch(P0_Read()) {
 311              		.loc 1 102 0
 312 002e FFF7FEFF 		bl	P0_Read
 313              	.LVL19:
 314 0032 35E0     		b	.L25
 315              	.L28:
 103:main.c        ****                     case 0xE:
 104:main.c        ****                     break;
 105:main.c        ****                     case 0xD:
 106:main.c        ****                     break;
 107:main.c        ****                     case 0xB:
 108:main.c        ****                     break;
 109:main.c        ****                     case 0x7:
ARM GAS  C:\Users\nikod\AppData\Local\Temp\ccZW2Ut4.s 			page 9


 110:main.c        ****                     break;
 111:main.c        ****                     default:
 112:main.c        ****                     break;   
 113:main.c        ****                 }
 114:main.c        ****                     break;
 115:main.c        ****                 case 0b00001011:            
 116:main.c        ****                     switch(P0_Read()) {
 316              		.loc 1 116 0
 317 0034 FFF7FEFF 		bl	P0_Read
 318              	.LVL20:
 319 0038 0E28     		cmp	r0, #14
 320 003a 31D1     		bne	.L25
 117:main.c        ****                     case 0xE:
 118:main.c        ****                         LCD_Position(1,15);
 321              		.loc 1 118 0
 322 003c 0F21     		movs	r1, #15
 323 003e 0120     		movs	r0, #1
 324 0040 FFF7FEFF 		bl	LCD_Position
 325              	.LVL21:
 119:main.c        ****                         LCD_PrintString("7");
 326              		.loc 1 119 0
 327 0044 1A48     		ldr	r0, .L39+4
 328 0046 FFF7FEFF 		bl	LCD_PrintString
 329              	.LVL22:
 120:main.c        ****                     break;
 330              		.loc 1 120 0
 331 004a 29E0     		b	.L25
 332              	.L26:
 121:main.c        ****                     case 0xD:
 122:main.c        **** 
 123:main.c        ****                     break;
 124:main.c        ****                      case 0xB:
 125:main.c        **** 
 126:main.c        ****                     break;
 127:main.c        ****                     case 0x7:
 128:main.c        **** 
 129:main.c        ****                     break;
 130:main.c        ****                     default:
 131:main.c        ****                     break;   
 132:main.c        ****                 }
 133:main.c        ****                     break;
 134:main.c        ****                 case 0b000000111:
 135:main.c        ****                     switch(P0_Read()) {
 333              		.loc 1 135 0
 334 004c FFF7FEFF 		bl	P0_Read
 335              	.LVL23:
 336 0050 0738     		subs	r0, r0, #7
 337 0052 0728     		cmp	r0, #7
 338 0054 24D8     		bhi	.L25
 339 0056 DFE800F0 		tbb	[pc, r0]
 340              	.L34:
 341 005a 1C       		.byte	(.L33-.L34)/2
 342 005b 23       		.byte	(.L25-.L34)/2
 343 005c 23       		.byte	(.L25-.L34)/2
 344 005d 23       		.byte	(.L25-.L34)/2
 345 005e 14       		.byte	(.L35-.L34)/2
 346 005f 23       		.byte	(.L25-.L34)/2
ARM GAS  C:\Users\nikod\AppData\Local\Temp\ccZW2Ut4.s 			page 10


 347 0060 0C       		.byte	(.L36-.L34)/2
 348 0061 04       		.byte	(.L37-.L34)/2
 349              		.p2align 1
 350              	.L37:
 136:main.c        ****                     case 0xE:
 137:main.c        ****                             LCD_Position(1,15);
 351              		.loc 1 137 0
 352 0062 0F21     		movs	r1, #15
 353 0064 0120     		movs	r0, #1
 354 0066 FFF7FEFF 		bl	LCD_Position
 355              	.LVL24:
 138:main.c        ****                             LCD_PrintString("*");
 356              		.loc 1 138 0
 357 006a 1248     		ldr	r0, .L39+8
 358 006c FFF7FEFF 		bl	LCD_PrintString
 359              	.LVL25:
 139:main.c        ****                     break;
 360              		.loc 1 139 0
 361 0070 16E0     		b	.L25
 362              	.L36:
 140:main.c        ****                     case 0xD:
 141:main.c        ****                             LCD_Position(1,15);
 363              		.loc 1 141 0
 364 0072 0F21     		movs	r1, #15
 365 0074 0120     		movs	r0, #1
 366 0076 FFF7FEFF 		bl	LCD_Position
 367              	.LVL26:
 142:main.c        ****                             LCD_PrintString("0");
 368              		.loc 1 142 0
 369 007a 0F48     		ldr	r0, .L39+12
 370 007c FFF7FEFF 		bl	LCD_PrintString
 371              	.LVL27:
 143:main.c        **** 
 144:main.c        ****                     break;
 372              		.loc 1 144 0
 373 0080 0EE0     		b	.L25
 374              	.L35:
 145:main.c        ****                     case 0xB:                            
 146:main.c        ****                             LCD_Position(1,15);
 375              		.loc 1 146 0
 376 0082 0F21     		movs	r1, #15
 377 0084 0120     		movs	r0, #1
 378 0086 FFF7FEFF 		bl	LCD_Position
 379              	.LVL28:
 147:main.c        ****                             LCD_PrintString("#");
 380              		.loc 1 147 0
 381 008a 0C48     		ldr	r0, .L39+16
 382 008c FFF7FEFF 		bl	LCD_PrintString
 383              	.LVL29:
 148:main.c        ****                     break;
 384              		.loc 1 148 0
 385 0090 06E0     		b	.L25
 386              	.L33:
 149:main.c        ****                     
 150:main.c        ****                     case 0x7:
 151:main.c        ****                             LCD_Position(1,15);
 387              		.loc 1 151 0
ARM GAS  C:\Users\nikod\AppData\Local\Temp\ccZW2Ut4.s 			page 11


 388 0092 0F21     		movs	r1, #15
 389 0094 0120     		movs	r0, #1
 390 0096 FFF7FEFF 		bl	LCD_Position
 391              	.LVL30:
 152:main.c        ****                             LCD_PrintString("D");
 392              		.loc 1 152 0
 393 009a 0948     		ldr	r0, .L39+20
 394 009c FFF7FEFF 		bl	LCD_PrintString
 395              	.LVL31:
 396              	.L25:
 153:main.c        ****                             
 154:main.c        ****                     break;
 155:main.c        ****                     default:
 156:main.c        ****                     break;   
 157:main.c        ****                 }
 158:main.c        ****                     break;
 159:main.c        ****                 default:
 160:main.c        ****                 break;
 161:main.c        ****     }
 162:main.c        **** dec=0;
 397              		.loc 1 162 0
 398 00a0 0022     		movs	r2, #0
 399 00a2 024B     		ldr	r3, .L39
 400 00a4 1A71     		strb	r2, [r3, #4]
 163:main.c        **** Key_ClearInterrupt();
 401              		.loc 1 163 0
 402 00a6 FFF7FEFF 		bl	Key_ClearInterrupt
 403              	.LVL32:
 404 00aa 08BD     		pop	{r3, pc}
 405              	.L40:
 406              		.align	2
 407              	.L39:
 408 00ac 00000000 		.word	.LANCHOR1
 409 00b0 08000000 		.word	.LC1
 410 00b4 0C000000 		.word	.LC2
 411 00b8 10000000 		.word	.LC3
 412 00bc 14000000 		.word	.LC4
 413 00c0 18000000 		.word	.LC5
 414              		.cfi_endproc
 415              	.LFE67:
 416              		.size	ISR_KEY, .-ISR_KEY
 417              		.section	.text.main,"ax",%progbits
 418              		.align	2
 419              		.global	main
 420              		.thumb
 421              		.thumb_func
 422              		.type	main, %function
 423              	main:
 424              	.LFB68:
 164:main.c        **** }
 165:main.c        **** 
 166:main.c        **** 
 167:main.c        **** 
 168:main.c        **** int main(void)
 169:main.c        **** {
 425              		.loc 1 169 0
 426              		.cfi_startproc
ARM GAS  C:\Users\nikod\AppData\Local\Temp\ccZW2Ut4.s 			page 12


 427              		@ Volatile: function does not return.
 428              		@ args = 0, pretend = 0, frame = 0
 429              		@ frame_needed = 0, uses_anonymous_args = 0
 430 0000 08B5     		push	{r3, lr}
 431              		.cfi_def_cfa_offset 8
 432              		.cfi_offset 3, -8
 433              		.cfi_offset 14, -4
 170:main.c        ****     CyGlobalIntEnable; /* Enable global interrupts. */
 434              		.loc 1 170 0
 435              		.syntax unified
 436              	@ 170 "main.c" 1
 437 0002 62B6     		CPSIE   i
 438              	@ 0 "" 2
 171:main.c        ****     ISR_T_1_StartEx(ISR_Timer);
 439              		.loc 1 171 0
 440              		.thumb
 441              		.syntax unified
 442 0004 2248     		ldr	r0, .L46
 443 0006 FFF7FEFF 		bl	ISR_T_1_StartEx
 444              	.LVL33:
 172:main.c        ****     ISR_T_2_StartEx(ISR_Timer2);
 445              		.loc 1 172 0
 446 000a 2248     		ldr	r0, .L46+4
 447 000c FFF7FEFF 		bl	ISR_T_2_StartEx
 448              	.LVL34:
 173:main.c        ****     IRS_key_StartEx(ISR_KEY);
 449              		.loc 1 173 0
 450 0010 2148     		ldr	r0, .L46+8
 451 0012 FFF7FEFF 		bl	IRS_key_StartEx
 452              	.LVL35:
 174:main.c        ****     LCD_Start();
 453              		.loc 1 174 0
 454 0016 FFF7FEFF 		bl	LCD_Start
 455              	.LVL36:
 175:main.c        ****     Timer_Start();
 456              		.loc 1 175 0
 457 001a FFF7FEFF 		bl	Timer_Start
 458              	.LVL37:
 176:main.c        ****     Timer2_Start();
 459              		.loc 1 176 0
 460 001e FFF7FEFF 		bl	Timer2_Start
 461              	.LVL38:
 177:main.c        ****     P0_Write(0b00001111);
 462              		.loc 1 177 0
 463 0022 0F20     		movs	r0, #15
 464 0024 FFF7FEFF 		bl	P0_Write
 465              	.LVL39:
 466              	.L44:
 178:main.c        ****      /* Place your initialization/startup code here (e.g. MyInst_Start()) */
 179:main.c        **** 
 180:main.c        ****     for(;;)
 181:main.c        ****     {
 182:main.c        ****      //Leer dato de sensor y compararlo con el nivel 
 183:main.c        ****         POUT_Write(0); //para generar un pulso limpio ponemos a LOW 4us
 467              		.loc 1 183 0
 468 0028 0020     		movs	r0, #0
 469 002a FFF7FEFF 		bl	POUT_Write
ARM GAS  C:\Users\nikod\AppData\Local\Temp\ccZW2Ut4.s 			page 13


 470              	.LVL40:
 184:main.c        ****         CyDelayUs(4);
 471              		.loc 1 184 0
 472 002e 0420     		movs	r0, #4
 473 0030 FFF7FEFF 		bl	CyDelayUs
 474              	.LVL41:
 185:main.c        ****         POUT_Write(1);  //generamos Trigger (disparo) de 10us
 475              		.loc 1 185 0
 476 0034 0120     		movs	r0, #1
 477 0036 FFF7FEFF 		bl	POUT_Write
 478              	.LVL42:
 186:main.c        ****         CyDelayUs(10);
 479              		.loc 1 186 0
 480 003a 0A20     		movs	r0, #10
 481 003c FFF7FEFF 		bl	CyDelayUs
 482              	.LVL43:
 187:main.c        ****         POUT_Write(0);
 483              		.loc 1 187 0
 484 0040 0020     		movs	r0, #0
 485 0042 FFF7FEFF 		bl	POUT_Write
 486              	.LVL44:
 487              	.L42:
 188:main.c        ****         while(PINT_Read()==0x0);//Espera hasta que llega 1
 488              		.loc 1 188 0 discriminator 1
 489 0046 FFF7FEFF 		bl	PINT_Read
 490              	.LVL45:
 491 004a 0028     		cmp	r0, #0
 492 004c FBD0     		beq	.L42
 189:main.c        ****         contd=0;
 493              		.loc 1 189 0
 494 004e 0022     		movs	r2, #0
 495 0050 124B     		ldr	r3, .L46+12
 496 0052 1A80     		strh	r2, [r3]	@ movhi
 497              	.L43:
 190:main.c        ****         while(PINT_Read()==0x1){        
 498              		.loc 1 190 0 discriminator 1
 499 0054 FFF7FEFF 		bl	PINT_Read
 500              	.LVL46:
 501 0058 0128     		cmp	r0, #1
 502 005a FBD0     		beq	.L43
 191:main.c        ****         }
 192:main.c        ****         LCD_Position(1,6);
 503              		.loc 1 192 0
 504 005c 0621     		movs	r1, #6
 505 005e 0120     		movs	r0, #1
 506 0060 FFF7FEFF 		bl	LCD_Position
 507              	.LVL47:
 193:main.c        ****         LCD_PrintString("S");
 508              		.loc 1 193 0
 509 0064 0E48     		ldr	r0, .L46+16
 510 0066 FFF7FEFF 		bl	LCD_PrintString
 511              	.LVL48:
 194:main.c        ****         //Toma el valor del timer
 195:main.c        ****         d=contd;//25 ms son 423cm --> cuantas veces 100 us son 25ms, serian 250: entonces 250 equiv
 512              		.loc 1 195 0
 513 006a 0C4C     		ldr	r4, .L46+12
 514 006c 2388     		ldrh	r3, [r4]
ARM GAS  C:\Users\nikod\AppData\Local\Temp\ccZW2Ut4.s 			page 14


 515 006e E380     		strh	r3, [r4, #6]	@ movhi
 196:main.c        ****         LCD_Position(0,0);
 516              		.loc 1 196 0
 517 0070 0021     		movs	r1, #0
 518 0072 0846     		mov	r0, r1
 519 0074 FFF7FEFF 		bl	LCD_Position
 520              	.LVL49:
 197:main.c        ****         LCD_PrintNumber(d);
 521              		.loc 1 197 0
 522 0078 E088     		ldrh	r0, [r4, #6]
 523 007a FFF7FEFF 		bl	LCD_PrintU32Number
 524              	.LVL50:
 198:main.c        ****         LCD_Position(1,0);
 525              		.loc 1 198 0
 526 007e 0021     		movs	r1, #0
 527 0080 0120     		movs	r0, #1
 528 0082 FFF7FEFF 		bl	LCD_Position
 529              	.LVL51:
 199:main.c        ****         CyDelay(500);
 530              		.loc 1 199 0
 531 0086 4FF4FA70 		mov	r0, #500
 532 008a FFF7FEFF 		bl	CyDelay
 533              	.LVL52:
 200:main.c        ****                 /*
 201:main.c        ****         if(d>seleccion){
 202:main.c        ****         //Llena 
 203:main.c        ****             Llenar_Write(1);
 204:main.c        ****             
 205:main.c        ****         }else{
 206:main.c        ****          //Vacia
 207:main.c        ****             Vaciar_Write(1);
 208:main.c        ****             
 209:main.c        ****         }*/
 210:main.c        ****         //timer();
 211:main.c        ****     }
 534              		.loc 1 211 0
 535 008e CBE7     		b	.L44
 536              	.L47:
 537              		.align	2
 538              	.L46:
 539 0090 00000000 		.word	ISR_Timer
 540 0094 00000000 		.word	ISR_Timer2
 541 0098 00000000 		.word	ISR_KEY
 542 009c 00000000 		.word	.LANCHOR0
 543 00a0 1C000000 		.word	.LC6
 544              		.cfi_endproc
 545              	.LFE68:
 546              		.size	main, .-main
 547              		.global	de
 548              		.global	disingaux
 549              		.global	dising
 550              		.global	dec
 551              		.global	seleccion
 552              		.global	d
 553              		.global	cont
 554              		.global	contd
 555              		.data
ARM GAS  C:\Users\nikod\AppData\Local\Temp\ccZW2Ut4.s 			page 15


 556              		.align	2
 557              		.set	.LANCHOR1,. + 0
 558              		.type	dising, %object
 559              		.size	dising, 4
 560              	dising:
 561 0000 0000C842 		.word	1120403456
 562              		.type	dec, %object
 563              		.size	dec, 1
 564              	dec:
 565 0004 01       		.byte	1
 566 0005 000000   		.space	3
 567              		.type	seleccion, %object
 568              		.size	seleccion, 4
 569              	seleccion:
 570 0008 0000B040 		.word	1085276160
 571              		.section	.rodata.str1.4,"aMS",%progbits,1
 572              		.align	2
 573              	.LC0:
 574 0000 20202020 		.ascii	"    \000"
 574      00
 575 0005 000000   		.space	3
 576              	.LC1:
 577 0008 3700     		.ascii	"7\000"
 578 000a 0000     		.space	2
 579              	.LC2:
 580 000c 2A00     		.ascii	"*\000"
 581 000e 0000     		.space	2
 582              	.LC3:
 583 0010 3000     		.ascii	"0\000"
 584 0012 0000     		.space	2
 585              	.LC4:
 586 0014 2300     		.ascii	"#\000"
 587 0016 0000     		.space	2
 588              	.LC5:
 589 0018 4400     		.ascii	"D\000"
 590 001a 0000     		.space	2
 591              	.LC6:
 592 001c 5300     		.ascii	"S\000"
 593              		.bss
 594              		.align	1
 595              		.set	.LANCHOR0,. + 0
 596              		.type	contd, %object
 597              		.size	contd, 2
 598              	contd:
 599 0000 0000     		.space	2
 600              		.type	cont, %object
 601              		.size	cont, 1
 602              	cont:
 603 0002 00       		.space	1
 604              		.type	de, %object
 605              		.size	de, 1
 606              	de:
 607 0003 00       		.space	1
 608              		.type	disingaux, %object
 609              		.size	disingaux, 2
 610              	disingaux:
 611 0004 0000     		.space	2
ARM GAS  C:\Users\nikod\AppData\Local\Temp\ccZW2Ut4.s 			page 16


 612              		.type	d, %object
 613              		.size	d, 2
 614              	d:
 615 0006 0000     		.space	2
 616              		.text
 617              	.Letext0:
 618              		.file 2 "c:\\program files (x86)\\cypress\\psoc creator\\4.2\\psoc creator\\import\\gnu\\arm\\5.4.
 619              		.file 3 "c:\\program files (x86)\\cypress\\psoc creator\\4.2\\psoc creator\\import\\gnu\\arm\\5.4.
 620              		.file 4 "Generated_Source\\PSoC5/cytypes.h"
 621              		.file 5 "Generated_Source\\PSoC5/core_cm3.h"
 622              		.file 6 "Generated_Source\\PSoC5/P0.h"
 623              		.file 7 "Generated_Source\\PSoC5/LCD.h"
 624              		.file 8 "Generated_Source\\PSoC5/Key.h"
 625              		.file 9 "Generated_Source\\PSoC5/ISR_T_1.h"
 626              		.file 10 "Generated_Source\\PSoC5/ISR_T_2.h"
 627              		.file 11 "Generated_Source\\PSoC5/IRS_key.h"
 628              		.file 12 "Generated_Source\\PSoC5/Timer.h"
 629              		.file 13 "Generated_Source\\PSoC5/Timer2.h"
 630              		.file 14 "Generated_Source\\PSoC5/POUT.h"
 631              		.file 15 "Generated_Source\\PSoC5/CyLib.h"
 632              		.file 16 "Generated_Source\\PSoC5/PINT.h"